target datalayout = "e-m:e-p270:32:32-p271:32:32-p272:64:64-i64:64-i128:128-f80:128-n8:16:32:64-S128"
target triple = "x86_64-pc-linux-gnu"

; Function Attrs: nounwind uwtable
define internal float @float32_unpack(i32 noundef %0) #0 {
  %2 = alloca i32, align 4
  %3 = alloca i32, align 4
  %4 = alloca i32, align 4
  %5 = alloca i32, align 4
  %6 = alloca double, align 8
  store i32 %0, ptr %2, align 4
  call void @llvm.lifetime.start.p0(i64 4, ptr %3) #21
  %7 = load i32, ptr %2, align 4
  %8 = and i32 %7, 2097151
  store i32 %8, ptr %3, align 4
  call void @llvm.lifetime.start.p0(i64 4, ptr %4) #21
  %9 = load i32, ptr %2, align 4
  %10 = and i32 %9, -2147483648
  store i32 %10, ptr %4, align 4
  call void @llvm.lifetime.start.p0(i64 4, ptr %5) #21
  %11 = load i32, ptr %2, align 4
  %12 = and i32 %11, 2145386496
  %13 = lshr i32 %12, 21
  store i32 %13, ptr %5, align 4
  call void @llvm.lifetime.start.p0(i64 8, ptr %6) #21
  %14 = load i32, ptr %4, align 4
  %15 = icmp ne i32 %14, 0
  br i1 %15, label %16, label %20

16:                                               ; preds = %1
  %17 = load i32, ptr %3, align 4
  %18 = uitofp i32 %17 to double
  %19 = fneg double %18
  br label %23

20:                                               ; preds = %1
  %21 = load i32, ptr %3, align 4
  %22 = uitofp i32 %21 to double
  br label %23

23:                                               ; preds = %20, %16
  %24 = phi double [ %19, %16 ], [ %22, %20 ]
  store double %24, ptr %6, align 8
  %25 = load double, ptr %6, align 8
  %26 = fptrunc double %25 to float
  %27 = fpext float %26 to double
  %28 = load i32, ptr %5, align 4
  %29 = sub nsw i32 %28, 788
  %30 = call double @ldexp(double noundef %27, i32 noundef %29) #21
  %31 = fptrunc double %30 to float
  call void @llvm.lifetime.end.p0(i64 8, ptr %6) #21
  call void @llvm.lifetime.end.p0(i64 4, ptr %5) #21
  call void @llvm.lifetime.end.p0(i64 4, ptr %4) #21
  call void @llvm.lifetime.end.p0(i64 4, ptr %3) #21
  ret float %31
}